target datalayout = "e-m:e-p270:32:32-p271:32:32-p272:64:64-i64:64-i128:128-f80:128-n8:16:32:64-S128"
target triple = "x86_64-pc-linux-gnu"

%struct.pkcs12_bag_st = type { ptr, %union.anon }
%union.anon = type { ptr }
%struct.PKCS12_SAFEBAG_st = type { ptr, %union.anon.0, ptr }
%union.anon.0 = type { ptr }

@.str = private unnamed_addr constant [35 x i8] c"../openssl/crypto/pkcs12/p12_add.c\00", align 1
@__func__.PKCS12_item_pack_safebag = private unnamed_addr constant [25 x i8] c"PKCS12_item_pack_safebag\00", align 1

; Function Attrs: nounwind uwtable
define ptr @PKCS12_item_pack_safebag(ptr noundef %0, ptr noundef %1, i32 noundef %2, i32 noundef %3) #0 {
  %5 = alloca ptr, align 8
  %6 = alloca ptr, align 8
  %7 = alloca ptr, align 8
  %8 = alloca i32, align 4
  %9 = alloca i32, align 4
  %10 = alloca ptr, align 8
  %11 = alloca ptr, align 8
  %12 = alloca i32, align 4
  store ptr %0, ptr %6, align 8, !tbaa !3
  store ptr %1, ptr %7, align 8, !tbaa !7
  store i32 %2, ptr %8, align 4, !tbaa !9
  store i32 %3, ptr %9, align 4, !tbaa !9
  call void @llvm.lifetime.start.p0(i64 8, ptr %10) #4
  call void @llvm.lifetime.start.p0(i64 8, ptr %11) #4
  %13 = call ptr @PKCS12_BAGS_new()
  store ptr %13, ptr %10, align 8, !tbaa !11
  %14 = icmp eq ptr %13, null
  br i1 %14, label %15, label %16

15:                                               ; preds = %4
  call void @ERR_new()
  call void @ERR_set_debug(ptr noundef @.str, i32 noundef 27, ptr noundef @__func__.PKCS12_item_pack_safebag)
  call void (i32, i32, ptr, ...) @ERR_set_error(i32 noundef 35, i32 noundef 524301, ptr noundef null)
  store ptr null, ptr %5, align 8
  store i32 1, ptr %12, align 4
  br label %43

16:                                               ; preds = %4
  %17 = load i32, ptr %8, align 4, !tbaa !9
  %18 = call ptr @OBJ_nid2obj(i32 noundef %17)
  %19 = load ptr, ptr %10, align 8, !tbaa !11
  %20 = getelementptr inbounds nuw %struct.pkcs12_bag_st, ptr %19, i32 0, i32 0
  store ptr %18, ptr %20, align 8, !tbaa !13
  %21 = load ptr, ptr %6, align 8, !tbaa !3
  %22 = load ptr, ptr %7, align 8, !tbaa !7
  %23 = load ptr, ptr %10, align 8, !tbaa !11
  %24 = getelementptr inbounds nuw %struct.pkcs12_bag_st, ptr %23, i32 0, i32 1
  %25 = call ptr @ASN1_item_pack(ptr noundef %21, ptr noundef %22, ptr noundef %24)
  %26 = icmp ne ptr %25, null
  br i1 %26, label %28, label %27

27:                                               ; preds = %16
  call void @ERR_new()
  call void @ERR_set_debug(ptr noundef @.str, i32 noundef 32, ptr noundef @__func__.PKCS12_item_pack_safebag)
  call void (i32, i32, ptr, ...) @ERR_set_error(i32 noundef 35, i32 noundef 524301, ptr noundef null)
  br label %41

28:                                               ; preds = %16
  %29 = call ptr @PKCS12_SAFEBAG_new()
  store ptr %29, ptr %11, align 8, !tbaa !16
  %30 = icmp eq ptr %29, null
  br i1 %30, label %31, label %32

31:                                               ; preds = %28
  call void @ERR_new()
  call void @ERR_set_debug(ptr noundef @.str, i32 noundef 36, ptr noundef @__func__.PKCS12_item_pack_safebag)
  call void (i32, i32, ptr, ...) @ERR_set_error(i32 noundef 35, i32 noundef 524301, ptr noundef null)
  br label %41

32:                                               ; preds = %28
  %33 = load ptr, ptr %10, align 8, !tbaa !11
  %34 = load ptr, ptr %11, align 8, !tbaa !16
  %35 = getelementptr inbounds nuw %struct.PKCS12_SAFEBAG_st, ptr %34, i32 0, i32 1
  store ptr %33, ptr %35, align 8, !tbaa !18
  %36 = load i32, ptr %9, align 4, !tbaa !9
  %37 = call ptr @OBJ_nid2obj(i32 noundef %36)
  %38 = load ptr, ptr %11, align 8, !tbaa !16
  %39 = getelementptr inbounds nuw %struct.PKCS12_SAFEBAG_st, ptr %38, i32 0, i32 0
  store ptr %37, ptr %39, align 8, !tbaa !19
  %40 = load ptr, ptr %11, align 8, !tbaa !16
  store ptr %40, ptr %5, align 8
  store i32 1, ptr %12, align 4
  br label %43

41:                                               ; preds = %31, %27
  %42 = load ptr, ptr %10, align 8, !tbaa !11
  call void @PKCS12_BAGS_free(ptr noundef %42)
  store ptr null, ptr %5, align 8
  store i32 1, ptr %12, align 4
  br label %43

43:                                               ; preds = %41, %32, %15
  call void @llvm.lifetime.end.p0(i64 8, ptr %11) #4
  call void @llvm.lifetime.end.p0(i64 8, ptr %10) #4
  %44 = load ptr, ptr %5, align 8
  ret ptr %44
}