; Function Attrs: nounwind uwtable
define ptr @PKCS12_item_pack_safebag(ptr noundef %0, ptr noundef %1, i32 noundef %2, i32 noundef %3) local_unnamed_addr #0 {
  %5 = tail call ptr @PKCS12_BAGS_new() #2
  %6 = icmp eq ptr %5, null
  br i1 %6, label %7, label %8

7:                                                ; preds = %4
  tail call void @ERR_new() #2
  tail call void @ERR_set_debug(ptr noundef nonnull @.str, i32 noundef 27, ptr noundef nonnull @__func__.PKCS12_item_pack_safebag) #2
  tail call void (i32, i32, ptr, ...) @ERR_set_error(i32 noundef 35, i32 noundef 524301, ptr noundef null) #2
  br label %19

8:                                                ; preds = %4
  %9 = tail call ptr @OBJ_nid2obj(i32 noundef %2) #2
  store ptr %9, ptr %5, align 8, !tbaa !3
  %10 = getelementptr inbounds nuw i8, ptr %5, i64 8
  %11 = tail call ptr @ASN1_item_pack(ptr noundef %0, ptr noundef %1, ptr noundef nonnull %10) #2
  %.not = icmp eq ptr %11, null
  br i1 %.not, label %18, label %12

12:                                               ; preds = %8
  %13 = tail call ptr @PKCS12_SAFEBAG_new() #2
  %14 = icmp eq ptr %13, null
  br i1 %14, label %18, label %15

15:                                               ; preds = %12
  %16 = getelementptr inbounds nuw i8, ptr %13, i64 8
  store ptr %5, ptr %16, align 8, !tbaa !9
  %17 = tail call ptr @OBJ_nid2obj(i32 noundef %3) #2
  store ptr %17, ptr %13, align 8, !tbaa !10
  br label %19

18:                                               ; preds = %12, %8
  %.sink = phi i32 [ 32, %8 ], [ 36, %12 ]
  tail call void @ERR_new() #2
  tail call void @ERR_set_debug(ptr noundef nonnull @.str, i32 noundef %.sink, ptr noundef nonnull @__func__.PKCS12_item_pack_safebag) #2
  tail call void (i32, i32, ptr, ...) @ERR_set_error(i32 noundef 35, i32 noundef 524301, ptr noundef null) #2
  tail call void @PKCS12_BAGS_free(ptr noundef nonnull %5) #2
  br label %19

19:                                               ; preds = %18, %15, %7
  %.0 = phi ptr [ null, %7 ], [ null, %18 ], [ %13, %15 ]
  ret ptr %.0
}